; Function Attrs: nounwind uwtable
define internal fastcc void @check_for_downgrade(ptr noundef %0, i32 noundef %1, ptr noundef writeonly captures(none) %2) unnamed_addr #0 {
  %4 = icmp eq i32 %1, 771
  br i1 %4, label %5, label %7

5:                                                ; preds = %3
  %6 = tail call i32 @ssl_version_supported(ptr noundef %0, i32 noundef 772, ptr noundef null)
  %.not = icmp eq i32 %6, 0
  br i1 %.not, label %7, label %ssl_version_supported.exit.thread11

7:                                                ; preds = %5, %3
  %8 = getelementptr inbounds nuw i8, ptr %0, i64 24
  %9 = load ptr, ptr %8, align 8, !tbaa !81
  %10 = getelementptr inbounds nuw i8, ptr %9, i64 216
  %11 = load ptr, ptr %10, align 8, !tbaa !82
  %12 = getelementptr inbounds nuw i8, ptr %11, i64 80
  %13 = load i32, ptr %12, align 8, !tbaa !85
  %14 = and i32 %13, 8
  %15 = icmp eq i32 %14, 0
  %16 = icmp slt i32 %1, 771
  %or.cond = and i1 %16, %15
  br i1 %or.cond, label %17, label %ssl_version_supported.exit.thread

17:                                               ; preds = %7
  %18 = load i32, ptr %9, align 8, !tbaa !87
  switch i32 %18, label %ssl_version_supported.exit [
    i32 65536, label %20
    i32 131071, label %19
  ]

19:                                               ; preds = %17
  br label %20

20:                                               ; preds = %19, %17
  %.028.i = phi ptr [ @dtls_version_table, %19 ], [ @tls_version_table, %17 ]
  %21 = load i32, ptr %.028.i, align 16, !tbaa !94
  %.not59.i = icmp eq i32 %21, 0
  br i1 %.not59.i, label %ssl_version_supported.exit.thread, label %.lr.ph.i

.lr.ph.i:                                         ; preds = %20
  %22 = getelementptr inbounds nuw i8, ptr %0, i64 120
  br label %.lr.ph.split.us.i

.lr.ph.split.us.i:                                ; preds = %ssl_version_cmp.exit44.us.i, %.lr.ph.i
  %23 = phi i32 [ %44, %ssl_version_cmp.exit44.us.i ], [ %21, %.lr.ph.i ]
  %.02960.us.i = phi ptr [ %43, %ssl_version_cmp.exit44.us.i ], [ %.028.i, %.lr.ph.i ]
  %24 = icmp eq i32 %23, 771
  br i1 %24, label %.thread.us.i, label %25

25:                                               ; preds = %.lr.ph.split.us.i
  %26 = load ptr, ptr %8, align 8, !tbaa !81
  %27 = getelementptr inbounds nuw i8, ptr %26, i64 216
  %28 = load ptr, ptr %27, align 8, !tbaa !82
  %29 = getelementptr inbounds nuw i8, ptr %28, i64 80
  %30 = load i32, ptr %29, align 8, !tbaa !85
  %31 = and i32 %30, 8
  %.not.i39.us.i = icmp eq i32 %31, 0
  br i1 %.not.i39.us.i, label %36, label %32

32:                                               ; preds = %25
  %33 = icmp ne i32 %23, 256
  %34 = icmp slt i32 %23, 771
  %35 = and i1 %33, %34
  br i1 %35, label %ssl_version_cmp.exit44.us.i, label %ssl_version_supported.exit.thread

36:                                               ; preds = %25
  %37 = icmp sgt i32 %23, 771
  br i1 %37, label %ssl_version_cmp.exit44.us.i, label %ssl_version_supported.exit.thread

.thread.us.i:                                     ; preds = %.lr.ph.split.us.i
  %38 = load i32, ptr %22, align 8, !tbaa !100
  %.not3349.us.i = icmp eq i32 %38, 0
  %.in50.v.us.i = select i1 %.not3349.us.i, i64 8, i64 16
  %.in50.us.i = getelementptr inbounds nuw i8, ptr %.02960.us.i, i64 %.in50.v.us.i
  %39 = load ptr, ptr %.in50.us.i, align 8, !tbaa !136
  %.not3451.us.i = icmp eq ptr %39, null
  br i1 %.not3451.us.i, label %ssl_version_cmp.exit44.us.i, label %.thread52.us.i

.thread52.us.i:                                   ; preds = %.thread.us.i
  %40 = tail call ptr %39() #11
  %41 = tail call fastcc i32 @ssl_method_error(ptr noundef nonnull %0, ptr noundef %40)
  %42 = icmp eq i32 %41, 0
  br i1 %42, label %ssl_version_supported.exit.thread11, label %ssl_version_cmp.exit44.us.i

ssl_version_cmp.exit44.us.i:                      ; preds = %.thread52.us.i, %.thread.us.i, %36, %32
  %43 = getelementptr inbounds nuw i8, ptr %.02960.us.i, i64 24
  %44 = load i32, ptr %43, align 8, !tbaa !94
  %.not.us.i = icmp eq i32 %44, 0
  br i1 %.not.us.i, label %ssl_version_supported.exit.thread, label %.lr.ph.split.us.i, !llvm.loop !214

ssl_version_supported.exit:                       ; preds = %17
  %45 = getelementptr inbounds nuw i8, ptr %0, i64 72
  %46 = load i32, ptr %45, align 8, !tbaa !90
  %.not14 = icmp eq i32 %46, 771
  br i1 %.not14, label %ssl_version_supported.exit.thread11, label %ssl_version_supported.exit.thread

ssl_version_supported.exit.thread:                ; preds = %ssl_version_cmp.exit44.us.i, %36, %32, %20, %ssl_version_supported.exit, %7
  br label %ssl_version_supported.exit.thread11

ssl_version_supported.exit.thread11:              ; preds = %.thread52.us.i, %ssl_version_supported.exit, %5, %ssl_version_supported.exit.thread
  %.sink = phi i32 [ 0, %ssl_version_supported.exit.thread ], [ 1, %5 ], [ 2, %ssl_version_supported.exit ], [ 2, %.thread52.us.i ]
  store i32 %.sink, ptr %2, align 4, !tbaa !101
  ret void
}